; Function Attrs: mustprogress uwtable
define hidden void @_ZN19OpenColorIO_v2_5dev21Add_RGB_to_JMh_ShaderERSt10shared_ptrINS_16GpuShaderCreatorEERNS_13GpuShaderTextERKSt6vectorIdSaIdEE(ptr noundef nonnull readonly align 8 captures(none) dereferenceable(16) %0, ptr noundef nonnull align 8 dereferenceable(764) %1, ptr noundef nonnull readonly align 8 captures(none) dereferenceable(24) %2) local_unnamed_addr #4 {
  %4 = alloca %"struct.OpenColorIO_v2_5dev::Primaries", align 8
  %5 = alloca %"struct.OpenColorIO_v2_5dev::ACES2::JMhParams", align 4
  %6 = load ptr, ptr %2, align 8, !tbaa !216
  %7 = load double, ptr %6, align 8, !tbaa !219
  %8 = fptrunc double %7 to float
  %9 = getelementptr inbounds nuw i8, ptr %6, i64 8
  %10 = load double, ptr %9, align 8, !tbaa !219
  %11 = fptrunc double %10 to float
  %12 = getelementptr inbounds nuw i8, ptr %6, i64 16
  %13 = load double, ptr %12, align 8, !tbaa !219
  %14 = fptrunc double %13 to float
  %15 = getelementptr inbounds nuw i8, ptr %6, i64 24
  %16 = load double, ptr %15, align 8, !tbaa !219
  %17 = fptrunc double %16 to float
  %18 = getelementptr inbounds nuw i8, ptr %6, i64 32
  %19 = load double, ptr %18, align 8, !tbaa !219
  %20 = fptrunc double %19 to float
  %21 = getelementptr inbounds nuw i8, ptr %6, i64 40
  %22 = load double, ptr %21, align 8, !tbaa !219
  %23 = fptrunc double %22 to float
  %24 = getelementptr inbounds nuw i8, ptr %6, i64 48
  %25 = load double, ptr %24, align 8, !tbaa !219
  %26 = fptrunc double %25 to float
  %27 = getelementptr inbounds nuw i8, ptr %6, i64 56
  %28 = load double, ptr %27, align 8, !tbaa !219
  %29 = fptrunc double %28 to float
  call void @llvm.lifetime.start.p0(i64 64, ptr nonnull %4) #23
  %30 = fpext float %8 to double
  %31 = fpext float %11 to double
  %32 = fpext float %14 to double
  %33 = fpext float %17 to double
  %34 = fpext float %20 to double
  %35 = fpext float %23 to double
  %36 = fpext float %26 to double
  %37 = fpext float %29 to double
  %38 = getelementptr inbounds nuw i8, ptr %4, i64 8
  store double %30, ptr %4, align 8, !tbaa !219
  store double %31, ptr %38, align 8, !tbaa !219
  %39 = getelementptr inbounds nuw i8, ptr %4, i64 16
  %40 = getelementptr inbounds nuw i8, ptr %4, i64 24
  store double %32, ptr %39, align 8, !tbaa !219
  store double %33, ptr %40, align 8, !tbaa !219
  %41 = getelementptr inbounds nuw i8, ptr %4, i64 32
  %42 = getelementptr inbounds nuw i8, ptr %4, i64 40
  store double %34, ptr %41, align 8, !tbaa !219
  store double %35, ptr %42, align 8, !tbaa !219
  %43 = getelementptr inbounds nuw i8, ptr %4, i64 48
  %44 = getelementptr inbounds nuw i8, ptr %4, i64 56
  store double %36, ptr %43, align 8, !tbaa !219
  store double %37, ptr %44, align 8, !tbaa !219
  call void @llvm.lifetime.start.p0(i64 112, ptr nonnull %5) #23
  call void @_ZN19OpenColorIO_v2_5dev5ACES214init_JMhParamsERKNS_9PrimariesE(ptr dead_on_unwind nonnull writable sret(%"struct.OpenColorIO_v2_5dev::ACES2::JMhParams") align 4 %5, ptr noundef nonnull align 8 dereferenceable(64) %4)
  call void @_ZN19OpenColorIO_v2_5dev22_Add_RGB_to_JMh_ShaderERSt10shared_ptrINS_16GpuShaderCreatorEERNS_13GpuShaderTextERKNS_5ACES29JMhParamsE(ptr noundef nonnull align 8 dereferenceable(16) %0, ptr noundef nonnull align 8 dereferenceable(764) %1, ptr noundef nonnull align 4 dereferenceable(112) %5)
  call void @llvm.lifetime.end.p0(i64 112, ptr nonnull %5) #23
  call void @llvm.lifetime.end.p0(i64 64, ptr nonnull %4) #23
  ret void
}